target datalayout = "e-m:e-p270:32:32-p271:32:32-p272:64:64-i64:64-i128:128-f80:128-n8:16:32:64-S128"
target triple = "x86_64-pc-linux-gnu"

%"class.std::basic_istream" = type { ptr, i64, %"class.std::basic_ios" }
%"class.std::basic_ios" = type { %"class.std::ios_base", ptr, i8, i8, ptr, ptr, ptr, ptr }
%"class.std::ios_base" = type { ptr, i64, i64, i32, i32, i32, ptr, %"struct.std::ios_base::_Words", [8 x %"struct.std::ios_base::_Words"], i32, ptr, %"class.std::locale" }
%"struct.std::ios_base::_Words" = type { ptr, i64 }
%"class.std::locale" = type { ptr }
%"class.std::basic_ostream" = type { ptr, %"class.std::basic_ios" }
%class.V3LexerBase = type <{ %class.FlexLexer.base, i32, i32, [4 x i8], ptr, %"class.std::basic_istream", %"class.std::basic_ostream", i8, [3 x i8], i32, ptr, i32, i32, i32, [4 x i8], i64, i64, ptr, i32, [4 x i8], ptr, ptr, ptr, ptr, ptr, i32, i32, i32, i32, i32, i32, i32, [4 x i8] }>
%class.FlexLexer.base = type <{ ptr, ptr, i32, i32, i32 }>
%class.FlexLexer = type <{ ptr, ptr, i32, i32, i32, [4 x i8] }>
%struct.yy_buffer_state = type { ptr, ptr, ptr, i32, i32, i32, i32, i32, i32, i32, i32, i32 }

@.str.29 = private unnamed_addr constant [49 x i8] c"out of dynamic memory in yyensure_buffer_stack()\00", align 1

; Function Attrs: mustprogress nounwind uwtable
define dso_local noundef ptr @_Z9yyreallocPvm(ptr noundef %0, i64 noundef %1) #4 {
  %3 = alloca ptr, align 8
  %4 = alloca i64, align 8
  store ptr %0, ptr %3, align 8
  store i64 %1, ptr %4, align 8
  %5 = load ptr, ptr %3, align 8
  %6 = load i64, ptr %4, align 8
  %7 = call ptr @realloc(ptr noundef %5, i64 noundef %6) #25
  ret ptr %7
}

; Function Attrs: mustprogress nounwind uwtable
define dso_local noundef ptr @_Z7yyallocm(i64 noundef %0) #4 {
  %2 = alloca i64, align 8
  store i64 %0, ptr %2, align 8
  %3 = load i64, ptr %2, align 8
  %4 = call noalias ptr @malloc(i64 noundef %3) #27
  ret ptr %4
}

; Function Attrs: mustprogress uwtable
define dso_local void @_ZN11V3LexerBase20yy_load_buffer_stateEv(ptr noundef nonnull align 8 dereferenceable(732) %0) #5 align 2 {
  %2 = alloca ptr, align 8
  store ptr %0, ptr %2, align 8
  %3 = load ptr, ptr %2, align 8
  %4 = getelementptr inbounds %class.V3LexerBase, ptr %3, i32 0, i32 17
  %5 = load ptr, ptr %4, align 8
  %6 = getelementptr inbounds %class.V3LexerBase, ptr %3, i32 0, i32 15
  %7 = load i64, ptr %6, align 8
  %8 = getelementptr inbounds ptr, ptr %5, i64 %7
  %9 = load ptr, ptr %8, align 8
  %10 = getelementptr inbounds %struct.yy_buffer_state, ptr %9, i32 0, i32 4
  %11 = load i32, ptr %10, align 4
  %12 = getelementptr inbounds %class.V3LexerBase, ptr %3, i32 0, i32 9
  store i32 %11, ptr %12, align 4
  %13 = getelementptr inbounds %class.V3LexerBase, ptr %3, i32 0, i32 17
  %14 = load ptr, ptr %13, align 8
  %15 = getelementptr inbounds %class.V3LexerBase, ptr %3, i32 0, i32 15
  %16 = load i64, ptr %15, align 8
  %17 = getelementptr inbounds ptr, ptr %14, i64 %16
  %18 = load ptr, ptr %17, align 8
  %19 = getelementptr inbounds %struct.yy_buffer_state, ptr %18, i32 0, i32 2
  %20 = load ptr, ptr %19, align 8
  %21 = getelementptr inbounds %class.V3LexerBase, ptr %3, i32 0, i32 10
  store ptr %20, ptr %21, align 8
  %22 = getelementptr inbounds %class.FlexLexer, ptr %3, i32 0, i32 1
  store ptr %20, ptr %22, align 8
  %23 = getelementptr inbounds %class.V3LexerBase, ptr %3, i32 0, i32 5
  %24 = load ptr, ptr %23, align 8
  %25 = getelementptr i8, ptr %24, i64 -24
  %26 = load i64, ptr %25, align 8
  %27 = getelementptr inbounds i8, ptr %23, i64 %26
  %28 = getelementptr inbounds %class.V3LexerBase, ptr %3, i32 0, i32 17
  %29 = load ptr, ptr %28, align 8
  %30 = getelementptr inbounds %class.V3LexerBase, ptr %3, i32 0, i32 15
  %31 = load i64, ptr %30, align 8
  %32 = getelementptr inbounds ptr, ptr %29, i64 %31
  %33 = load ptr, ptr %32, align 8
  %34 = getelementptr inbounds %struct.yy_buffer_state, ptr %33, i32 0, i32 0
  %35 = load ptr, ptr %34, align 8
  %36 = call noundef ptr @_ZNSt9basic_iosIcSt11char_traitsIcEE5rdbufEPSt15basic_streambufIcS1_E(ptr noundef nonnull align 8 dereferenceable(264) %27, ptr noundef %35)
  %37 = getelementptr inbounds %class.V3LexerBase, ptr %3, i32 0, i32 10
  %38 = load ptr, ptr %37, align 8
  %39 = load i8, ptr %38, align 1
  %40 = getelementptr inbounds %class.V3LexerBase, ptr %3, i32 0, i32 7
  store i8 %39, ptr %40, align 8
  ret void
}

; Function Attrs: mustprogress uwtable
define dso_local void @_ZN11V3LexerBase21yyensure_buffer_stackEv(ptr noundef nonnull align 8 dereferenceable(732) %0) #5 align 2 {
  %2 = alloca ptr, align 8
  %3 = alloca i64, align 8
  %4 = alloca i64, align 8
  store ptr %0, ptr %2, align 8
  %5 = load ptr, ptr %2, align 8
  %6 = getelementptr inbounds %class.V3LexerBase, ptr %5, i32 0, i32 17
  %7 = load ptr, ptr %6, align 8
  %8 = icmp ne ptr %7, null
  br i1 %8, label %29, label %9

9:                                                ; preds = %1
  store i64 1, ptr %3, align 8
  %10 = load i64, ptr %3, align 8
  %11 = mul i64 %10, 8
  %12 = call noundef ptr @_Z7yyallocm(i64 noundef %11)
  %13 = getelementptr inbounds %class.V3LexerBase, ptr %5, i32 0, i32 17
  store ptr %12, ptr %13, align 8
  %14 = getelementptr inbounds %class.V3LexerBase, ptr %5, i32 0, i32 17
  %15 = load ptr, ptr %14, align 8
  %16 = icmp ne ptr %15, null
  br i1 %16, label %21, label %17

17:                                               ; preds = %9
  %18 = load ptr, ptr %5, align 8
  %19 = getelementptr inbounds ptr, ptr %18, i64 14
  %20 = load ptr, ptr %19, align 8
  call void %20(ptr noundef nonnull align 8 dereferenceable(732) %5, ptr noundef @.str.29)
  br label %21

21:                                               ; preds = %17, %9
  %22 = getelementptr inbounds %class.V3LexerBase, ptr %5, i32 0, i32 17
  %23 = load ptr, ptr %22, align 8
  %24 = load i64, ptr %3, align 8
  %25 = mul i64 %24, 8
  call void @llvm.memset.p0.i64(ptr align 8 %23, i8 0, i64 %25, i1 false)
  %26 = load i64, ptr %3, align 8
  %27 = getelementptr inbounds %class.V3LexerBase, ptr %5, i32 0, i32 16
  store i64 %26, ptr %27, align 8
  %28 = getelementptr inbounds %class.V3LexerBase, ptr %5, i32 0, i32 15
  store i64 0, ptr %28, align 8
  br label %64

29:                                               ; preds = %1
  %30 = getelementptr inbounds %class.V3LexerBase, ptr %5, i32 0, i32 15
  %31 = load i64, ptr %30, align 8
  %32 = getelementptr inbounds %class.V3LexerBase, ptr %5, i32 0, i32 16
  %33 = load i64, ptr %32, align 8
  %34 = sub i64 %33, 1
  %35 = icmp uge i64 %31, %34
  br i1 %35, label %36, label %64

36:                                               ; preds = %29
  store i64 8, ptr %4, align 8
  %37 = getelementptr inbounds %class.V3LexerBase, ptr %5, i32 0, i32 16
  %38 = load i64, ptr %37, align 8
  %39 = load i64, ptr %4, align 8
  %40 = add i64 %38, %39
  store i64 %40, ptr %3, align 8
  %41 = getelementptr inbounds %class.V3LexerBase, ptr %5, i32 0, i32 17
  %42 = load ptr, ptr %41, align 8
  %43 = load i64, ptr %3, align 8
  %44 = mul i64 %43, 8
  %45 = call noundef ptr @_Z9yyreallocPvm(ptr noundef %42, i64 noundef %44)
  %46 = getelementptr inbounds %class.V3LexerBase, ptr %5, i32 0, i32 17
  store ptr %45, ptr %46, align 8
  %47 = getelementptr inbounds %class.V3LexerBase, ptr %5, i32 0, i32 17
  %48 = load ptr, ptr %47, align 8
  %49 = icmp ne ptr %48, null
  br i1 %49, label %54, label %50

50:                                               ; preds = %36
  %51 = load ptr, ptr %5, align 8
  %52 = getelementptr inbounds ptr, ptr %51, i64 14
  %53 = load ptr, ptr %52, align 8
  call void %53(ptr noundef nonnull align 8 dereferenceable(732) %5, ptr noundef @.str.29)
  br label %54

54:                                               ; preds = %50, %36
  %55 = getelementptr inbounds %class.V3LexerBase, ptr %5, i32 0, i32 17
  %56 = load ptr, ptr %55, align 8
  %57 = getelementptr inbounds %class.V3LexerBase, ptr %5, i32 0, i32 16
  %58 = load i64, ptr %57, align 8
  %59 = getelementptr inbounds ptr, ptr %56, i64 %58
  %60 = load i64, ptr %4, align 8
  %61 = mul i64 %60, 8
  call void @llvm.memset.p0.i64(ptr align 8 %59, i8 0, i64 %61, i1 false)
  %62 = load i64, ptr %3, align 8
  %63 = getelementptr inbounds %class.V3LexerBase, ptr %5, i32 0, i32 16
  store i64 %62, ptr %63, align 8
  br label %64

64:                                               ; preds = %54, %29, %21
  ret void
}

; Function Attrs: mustprogress uwtable
define dso_local void @_ZN11V3LexerBase9yyrestartERSi(ptr noundef nonnull align 8 dereferenceable(732) %0, ptr noundef nonnull align 8 dereferenceable(16) %1) unnamed_addr #5 align 2 {
  %3 = alloca ptr, align 8
  %4 = alloca ptr, align 8
  store ptr %0, ptr %3, align 8
  store ptr %1, ptr %4, align 8
  %5 = load ptr, ptr %3, align 8
  %6 = getelementptr inbounds %class.V3LexerBase, ptr %5, i32 0, i32 17
  %7 = load ptr, ptr %6, align 8
  %8 = icmp ne ptr %7, null
  br i1 %8, label %9, label %16

9:                                                ; preds = %2
  %10 = getelementptr inbounds %class.V3LexerBase, ptr %5, i32 0, i32 17
  %11 = load ptr, ptr %10, align 8
  %12 = getelementptr inbounds %class.V3LexerBase, ptr %5, i32 0, i32 15
  %13 = load i64, ptr %12, align 8
  %14 = getelementptr inbounds ptr, ptr %11, i64 %13
  %15 = load ptr, ptr %14, align 8
  br label %17

16:                                               ; preds = %2
  br label %17

17:                                               ; preds = %16, %9
  %18 = phi ptr [ %15, %9 ], [ null, %16 ]
  %19 = icmp ne ptr %18, null
  br i1 %19, label %31, label %20

20:                                               ; preds = %17
  call void @_ZN11V3LexerBase21yyensure_buffer_stackEv(ptr noundef nonnull align 8 dereferenceable(732) %5)
  %21 = getelementptr inbounds %class.V3LexerBase, ptr %5, i32 0, i32 5
  %22 = load ptr, ptr %5, align 8
  %23 = getelementptr inbounds ptr, ptr %22, i64 4
  %24 = load ptr, ptr %23, align 8
  %25 = call noundef ptr %24(ptr noundef nonnull align 8 dereferenceable(732) %5, ptr noundef nonnull align 8 dereferenceable(16) %21, i32 noundef 16384)
  %26 = getelementptr inbounds %class.V3LexerBase, ptr %5, i32 0, i32 17
  %27 = load ptr, ptr %26, align 8
  %28 = getelementptr inbounds %class.V3LexerBase, ptr %5, i32 0, i32 15
  %29 = load i64, ptr %28, align 8
  %30 = getelementptr inbounds ptr, ptr %27, i64 %29
  store ptr %25, ptr %30, align 8
  br label %31

31:                                               ; preds = %20, %17
  %32 = getelementptr inbounds %class.V3LexerBase, ptr %5, i32 0, i32 17
  %33 = load ptr, ptr %32, align 8
  %34 = icmp ne ptr %33, null
  br i1 %34, label %35, label %42

35:                                               ; preds = %31
  %36 = getelementptr inbounds %class.V3LexerBase, ptr %5, i32 0, i32 17
  %37 = load ptr, ptr %36, align 8
  %38 = getelementptr inbounds %class.V3LexerBase, ptr %5, i32 0, i32 15
  %39 = load i64, ptr %38, align 8
  %40 = getelementptr inbounds ptr, ptr %37, i64 %39
  %41 = load ptr, ptr %40, align 8
  br label %43

42:                                               ; preds = %31
  br label %43

43:                                               ; preds = %42, %35
  %44 = phi ptr [ %41, %35 ], [ null, %42 ]
  %45 = load ptr, ptr %4, align 8
  call void @_ZN11V3LexerBase14yy_init_bufferEP15yy_buffer_stateRSi(ptr noundef nonnull align 8 dereferenceable(732) %5, ptr noundef %44, ptr noundef nonnull align 8 dereferenceable(16) %45)
  call void @_ZN11V3LexerBase20yy_load_buffer_stateEv(ptr noundef nonnull align 8 dereferenceable(732) %5)
  ret void
}