; Function Attrs: mustprogress uwtable
define dso_local void @_ZN11V3LexerBase9yyrestartERSi(ptr noundef nonnull align 8 dereferenceable(732) %0, ptr noundef nonnull align 8 dereferenceable(16) %1) unnamed_addr #4 align 2 {
  %3 = getelementptr inbounds i8, ptr %0, i64 648
  %4 = load ptr, ptr %3, align 8
  %.not = icmp eq ptr %4, null
  br i1 %.not, label %11, label %5

5:                                                ; preds = %2
  %6 = getelementptr inbounds i8, ptr %0, i64 632
  %7 = load i64, ptr %6, align 8
  %8 = getelementptr inbounds ptr, ptr %4, i64 %7
  %9 = load ptr, ptr %8, align 8
  %10 = icmp eq ptr %9, null
  br i1 %10, label %.critedge, label %.thread

11:                                               ; preds = %2
  %12 = tail call noalias noundef dereferenceable_or_null(8) ptr @malloc(i64 noundef 8) #31
  store ptr %12, ptr %3, align 8
  %.not7.i = icmp eq ptr %12, null
  br i1 %.not7.i, label %13, label %17

13:                                               ; preds = %11
  %14 = load ptr, ptr %0, align 8
  %15 = getelementptr inbounds i8, ptr %14, i64 112
  %16 = load ptr, ptr %15, align 8
  tail call void %16(ptr noundef nonnull align 8 dereferenceable(732) %0, ptr noundef nonnull @.str.29)
  %.pre10.i = load ptr, ptr %3, align 8
  br label %17

17:                                               ; preds = %13, %11
  %18 = phi ptr [ %.pre10.i, %13 ], [ %12, %11 ]
  store i64 0, ptr %18, align 8
  %19 = getelementptr inbounds i8, ptr %0, i64 640
  store i64 1, ptr %19, align 8
  %20 = getelementptr inbounds i8, ptr %0, i64 632
  store i64 0, ptr %20, align 8
  br label %36

.critedge:                                        ; preds = %5
  %21 = getelementptr inbounds i8, ptr %0, i64 640
  %22 = load i64, ptr %21, align 8
  %23 = add i64 %22, -1
  %.not8.i = icmp ult i64 %7, %23
  br i1 %.not8.i, label %36, label %24

24:                                               ; preds = %.critedge
  %25 = add i64 %22, 8
  %26 = shl i64 %25, 3
  %27 = tail call noalias noundef ptr @realloc(ptr noundef nonnull %4, i64 noundef %26) #32
  store ptr %27, ptr %3, align 8
  %.not9.i = icmp eq ptr %27, null
  br i1 %.not9.i, label %28, label %32

28:                                               ; preds = %24
  %29 = load ptr, ptr %0, align 8
  %30 = getelementptr inbounds i8, ptr %29, i64 112
  %31 = load ptr, ptr %30, align 8
  tail call void %31(ptr noundef nonnull align 8 dereferenceable(732) %0, ptr noundef nonnull @.str.29)
  %.pre.i = load ptr, ptr %3, align 8
  br label %32

32:                                               ; preds = %28, %24
  %33 = phi ptr [ %.pre.i, %28 ], [ %27, %24 ]
  %34 = load i64, ptr %21, align 8
  %35 = getelementptr inbounds ptr, ptr %33, i64 %34
  tail call void @llvm.memset.p0.i64(ptr noundef nonnull align 8 dereferenceable(64) %35, i8 0, i64 64, i1 false)
  store i64 %25, ptr %21, align 8
  br label %36

36:                                               ; preds = %32, %.critedge, %17
  %37 = getelementptr inbounds i8, ptr %0, i64 48
  %38 = load ptr, ptr %0, align 8
  %39 = getelementptr inbounds i8, ptr %38, i64 32
  %40 = load ptr, ptr %39, align 8
  %41 = tail call noundef ptr %40(ptr noundef nonnull align 8 dereferenceable(732) %0, ptr noundef nonnull align 8 dereferenceable(16) %37, i32 noundef 16384)
  %42 = load ptr, ptr %3, align 8
  %43 = getelementptr inbounds i8, ptr %0, i64 632
  %44 = load i64, ptr %43, align 8
  %45 = getelementptr inbounds ptr, ptr %42, i64 %44
  store ptr %41, ptr %45, align 8
  %.pre = load ptr, ptr %3, align 8
  %.not4 = icmp eq ptr %.pre, null
  br i1 %.not4, label %51, label %.thread

.thread:                                          ; preds = %5, %36
  %46 = phi ptr [ %.pre, %36 ], [ %4, %5 ]
  %47 = getelementptr inbounds i8, ptr %0, i64 632
  %48 = load i64, ptr %47, align 8
  %49 = getelementptr inbounds ptr, ptr %46, i64 %48
  %50 = load ptr, ptr %49, align 8
  br label %51

51:                                               ; preds = %36, %.thread
  %52 = phi ptr [ %50, %.thread ], [ null, %36 ]
  tail call void @_ZN11V3LexerBase14yy_init_bufferEP15yy_buffer_stateRSi(ptr noundef nonnull align 8 dereferenceable(732) %0, ptr noundef %52, ptr noundef nonnull align 8 dereferenceable(16) %1)
  %53 = load ptr, ptr %3, align 8
  %54 = getelementptr inbounds i8, ptr %0, i64 632
  %55 = load i64, ptr %54, align 8
  %56 = getelementptr inbounds ptr, ptr %53, i64 %55
  %57 = load ptr, ptr %56, align 8
  %58 = getelementptr inbounds i8, ptr %57, i64 28
  %59 = load i32, ptr %58, align 4
  %60 = getelementptr inbounds i8, ptr %0, i64 604
  store i32 %59, ptr %60, align 4
  %61 = load ptr, ptr %56, align 8
  %62 = getelementptr inbounds i8, ptr %61, i64 16
  %63 = load ptr, ptr %62, align 8
  %64 = getelementptr inbounds i8, ptr %0, i64 608
  store ptr %63, ptr %64, align 8
  %65 = getelementptr inbounds i8, ptr %0, i64 8
  store ptr %63, ptr %65, align 8
  %66 = getelementptr inbounds i8, ptr %0, i64 48
  %67 = load ptr, ptr %66, align 8
  %68 = getelementptr i8, ptr %67, i64 -24
  %69 = load i64, ptr %68, align 8
  %70 = getelementptr inbounds i8, ptr %66, i64 %69
  %71 = load ptr, ptr %56, align 8
  %72 = load ptr, ptr %71, align 8
  %73 = tail call noundef ptr @_ZNSt9basic_iosIcSt11char_traitsIcEE5rdbufEPSt15basic_streambufIcS1_E(ptr noundef nonnull align 8 dereferenceable(264) %70, ptr noundef %72)
  %74 = load ptr, ptr %64, align 8
  %75 = load i8, ptr %74, align 1
  %76 = getelementptr inbounds i8, ptr %0, i64 600
  store i8 %75, ptr %76, align 8
  ret void
}